; Function Attrs: mustprogress uwtable
define hidden noundef zeroext i1 @_ZN13bound_manager10is_numeralEP4exprR8rationalRb(ptr noundef nonnull align 8 dereferenceable(128) %this, ptr noundef %v, ptr noundef nonnull align 8 dereferenceable(32) %n, ptr noundef nonnull align 1 dereferenceable(1) %is_int) local_unnamed_addr #3 align 2 {
entry:
  %m_kind.i.i.i.i = getelementptr inbounds i8, ptr %v, i64 4
  %bf.load.i.i.i.i = load i32, ptr %m_kind.i.i.i.i, align 4
  %bf.clear.i.i.i.i = and i32 %bf.load.i.i.i.i, 65535
  %cmp.i.i.i = icmp eq i32 %bf.clear.i.i.i.i, 0
  br i1 %cmp.i.i.i, label %land.rhs.i.i.i, label %if.end

land.rhs.i.i.i:                                   ; preds = %entry
  %m_decl.i.i.i.i = getelementptr inbounds i8, ptr %v, i64 16
  %0 = load ptr, ptr %m_decl.i.i.i.i, align 8
  %m_info.i.i.i.i.i = getelementptr inbounds i8, ptr %0, i64 24
  %1 = load ptr, ptr %m_info.i.i.i.i.i, align 8
  %tobool.not.i.i.i.i.i = icmp eq ptr %1, null
  br i1 %tobool.not.i.i.i.i.i, label %if.end, label %_ZNK17arith_recognizers9is_uminusEPK4expr.exit.i

_ZNK17arith_recognizers9is_uminusEPK4expr.exit.i: ; preds = %land.rhs.i.i.i
  %2 = load i32, ptr %1, align 8
  %cmp.i.i.i.i.i.i = icmp eq i32 %2, 5
  %m_kind.i.i.i.i.i.i = getelementptr inbounds i8, ptr %1, i64 4
  %3 = load i32, ptr %m_kind.i.i.i.i.i.i, align 4
  %cmp2.i.i.i.i.i.i = icmp eq i32 %3, 8
  %4 = select i1 %cmp.i.i.i.i.i.i, i1 %cmp2.i.i.i.i.i.i, i1 false
  br i1 %4, label %land.lhs.true.i, label %if.end

land.lhs.true.i:                                  ; preds = %_ZNK17arith_recognizers9is_uminusEPK4expr.exit.i
  %m_num_args.i.i = getelementptr inbounds i8, ptr %v, i64 24
  %5 = load i32, ptr %m_num_args.i.i, align 8
  %cmp.i = icmp eq i32 %5, 1
  br i1 %cmp.i, label %land.lhs.true, label %if.end

land.lhs.true:                                    ; preds = %land.lhs.true.i
  %m_args.i.i = getelementptr inbounds i8, ptr %v, i64 32
  %6 = load ptr, ptr %m_args.i.i, align 8
  %call2 = tail call noundef zeroext i1 @_ZN13bound_manager10is_numeralEP4exprR8rationalRb(ptr noundef nonnull align 8 dereferenceable(128) %this, ptr noundef %6, ptr noundef nonnull align 8 dereferenceable(32) %n, ptr noundef nonnull align 1 dereferenceable(1) %is_int)
  br i1 %call2, label %if.then, label %if.end

if.then:                                          ; preds = %land.lhs.true
  %7 = load ptr, ptr @_ZN8rational13g_mpq_managerE, align 8
  tail call void @_ZN11mpz_managerILb1EE3negER3mpz(ptr noundef nonnull align 8 dereferenceable(600) %7, ptr noundef nonnull align 8 dereferenceable(16) %n)
  br label %return

if.end:                                           ; preds = %land.rhs.i.i.i, %entry, %_ZNK17arith_recognizers9is_uminusEPK4expr.exit.i, %land.lhs.true.i, %land.lhs.true
  %call4 = tail call noundef zeroext i1 @_ZNK10arith_util10is_numeralEPK4exprR8rationalRb(ptr noundef nonnull align 8 dereferenceable(16) %this, ptr noundef nonnull %v, ptr noundef nonnull align 8 dereferenceable(32) %n, ptr noundef nonnull align 1 dereferenceable(1) %is_int)
  br label %return

return:                                           ; preds = %if.end, %if.then
  %retval.0 = phi i1 [ true, %if.then ], [ %call4, %if.end ]
  ret i1 %retval.0
}